target datalayout = "e-m:e-p270:32:32-p271:32:32-p272:64:64-i64:64-i128:128-f80:128-n8:16:32:64-S128"
target triple = "x86_64-pc-linux-gnu"

%struct._lv_event_t = type { ptr, ptr, i32, ptr, ptr, ptr, i8 }
%struct._lv_cover_check_info_t = type { i32, ptr }

; Function Attrs: nounwind uwtable
define ptr @lv_event_get_cover_area(ptr noundef %0) #0 {
  %2 = alloca ptr, align 8
  %3 = alloca ptr, align 8
  %4 = alloca ptr, align 8
  store ptr %0, ptr %3, align 8, !tbaa !3
  %5 = load ptr, ptr %3, align 8, !tbaa !3
  %6 = getelementptr inbounds nuw %struct._lv_event_t, ptr %5, i32 0, i32 2
  %7 = load i32, ptr %6, align 8, !tbaa !12
  %8 = icmp eq i32 %7, 26
  br i1 %8, label %9, label %15

9:                                                ; preds = %1
  call void @llvm.lifetime.start.p0(i64 8, ptr %4) #3
  %10 = load ptr, ptr %3, align 8, !tbaa !3
  %11 = call ptr @lv_event_get_param(ptr noundef %10)
  store ptr %11, ptr %4, align 8, !tbaa !3
  %12 = load ptr, ptr %4, align 8, !tbaa !3
  %13 = getelementptr inbounds nuw %struct._lv_cover_check_info_t, ptr %12, i32 0, i32 1
  %14 = load ptr, ptr %13, align 8, !tbaa !30
  store ptr %14, ptr %2, align 8
  call void @llvm.lifetime.end.p0(i64 8, ptr %4) #3
  br label %18

15:                                               ; preds = %1
  br label %16

16:                                               ; preds = %15
  br label %17

17:                                               ; preds = %16
  store ptr null, ptr %2, align 8
  br label %18

18:                                               ; preds = %17, %9
  %19 = load ptr, ptr %2, align 8
  ret ptr %19
}