; Function Attrs: nounwind uwtable
define ptr @lv_event_get_cover_area(ptr noundef %0) local_unnamed_addr #0 {
  %2 = getelementptr inbounds nuw i8, ptr %0, i64 16
  %3 = load i32, ptr %2, align 8, !tbaa !10
  %4 = icmp eq i32 %3, 26
  br i1 %4, label %5, label %9

5:                                                ; preds = %1
  %6 = tail call ptr @lv_event_get_param(ptr noundef nonnull %0) #4
  %7 = getelementptr inbounds nuw i8, ptr %6, i64 8
  %8 = load ptr, ptr %7, align 8, !tbaa !29
  br label %9

9:                                                ; preds = %1, %5
  %.0 = phi ptr [ %8, %5 ], [ null, %1 ]
  ret ptr %.0
}